target datalayout = "e-m:e-p270:32:32-p271:32:32-p272:64:64-i64:64-i128:128-f80:128-n8:16:32:64-S128"
target triple = "x86_64-pc-linux-gnu"

%"class.clang::CharUnits" = type { i64 }
%"class.clang::QualType" = type { %"class.llvm::PointerIntPair" }
%"class.llvm::PointerIntPair" = type { %"struct.llvm::detail::PunnedPointer" }
%"struct.llvm::detail::PunnedPointer" = type { [8 x i8] }
%"class.clang::CodeGen::EHScopeStack::Cleanup" = type { ptr }
%"class.clang::CodeGen::EHScopeStack::Cleanup::Flags" = type { i32 }
%"struct.(anonymous namespace)::CallObjectDelete" = type { %"class.clang::CodeGen::EHScopeStack::Cleanup", ptr, ptr, %"class.clang::QualType" }

; Function Attrs: mustprogress nounwind uwtable
define linkonce_odr hidden void @_ZN5clang9CharUnitsC2Ev(ptr noundef nonnull align 8 dereferenceable(8) %0) unnamed_addr #0 comdat align 2 {
  %2 = alloca ptr, align 8
  store ptr %0, ptr %2, align 8
  %3 = load ptr, ptr %2, align 8
  %4 = getelementptr inbounds nuw %"class.clang::CharUnits", ptr %3, i32 0, i32 0
  store i64 0, ptr %4, align 8
  ret void
}

; Function Attrs: mustprogress nounwind uwtable
define internal void @_ZN12_GLOBAL__N_116CallObjectDelete4EmitERN5clang7CodeGen15CodeGenFunctionENS2_12EHScopeStack7Cleanup5FlagsE(ptr noundef nonnull align 8 dereferenceable(32) %0, ptr noundef nonnull align 8 dereferenceable(6488) %1, i32 %2) unnamed_addr #0 align 2 {
  %4 = alloca %"class.clang::CodeGen::EHScopeStack::Cleanup::Flags", align 4
  %5 = alloca ptr, align 8
  %6 = alloca ptr, align 8
  %7 = alloca %"class.clang::QualType", align 8
  %8 = alloca %"class.clang::CharUnits", align 8
  %9 = getelementptr inbounds nuw %"class.clang::CodeGen::EHScopeStack::Cleanup::Flags", ptr %4, i32 0, i32 0
  store i32 %2, ptr %9, align 4
  store ptr %0, ptr %5, align 8
  store ptr %1, ptr %6, align 8
  %10 = load ptr, ptr %5, align 8
  %11 = load ptr, ptr %6, align 8
  %12 = getelementptr inbounds nuw %"struct.(anonymous namespace)::CallObjectDelete", ptr %10, i32 0, i32 2
  %13 = load ptr, ptr %12, align 8
  %14 = getelementptr inbounds nuw %"struct.(anonymous namespace)::CallObjectDelete", ptr %10, i32 0, i32 1
  %15 = load ptr, ptr %14, align 8
  %16 = getelementptr inbounds nuw %"struct.(anonymous namespace)::CallObjectDelete", ptr %10, i32 0, i32 3
  call void @llvm.memcpy.p0.p0.i64(ptr align 8 %7, ptr align 8 %16, i64 8, i1 false)
  call void @llvm.memset.p0.i64(ptr align 8 %8, i8 0, i64 8, i1 false)
  call void @_ZN5clang9CharUnitsC2Ev(ptr noundef nonnull align 8 dereferenceable(8) %8) #12
  %17 = getelementptr inbounds nuw %"class.clang::QualType", ptr %7, i32 0, i32 0
  %18 = getelementptr inbounds nuw %"class.llvm::PointerIntPair", ptr %17, i32 0, i32 0
  %19 = getelementptr inbounds nuw %"struct.llvm::detail::PunnedPointer", ptr %18, i32 0, i32 0
  %20 = load i64, ptr %19, align 8
  %21 = getelementptr inbounds nuw %"class.clang::CharUnits", ptr %8, i32 0, i32 0
  %22 = load i64, ptr %21, align 8
  call void @_ZN5clang7CodeGen15CodeGenFunction14EmitDeleteCallEPKNS_12FunctionDeclEPN4llvm5ValueENS_8QualTypeES7_NS_9CharUnitsE(ptr noundef nonnull align 8 dereferenceable(6488) %11, ptr noundef %13, ptr noundef %15, i64 %20, ptr noundef null, i64 %22)
  ret void
}