; Function Attrs: mustprogress nounwind uwtable
define internal void @_ZN12_GLOBAL__N_116CallObjectDelete4EmitERN5clang7CodeGen15CodeGenFunctionENS2_12EHScopeStack7Cleanup5FlagsE(ptr nocapture noundef nonnull readonly align 8 dereferenceable(32) %0, ptr noundef nonnull align 8 dereferenceable(6488) %1, i32 %2) unnamed_addr #0 align 2 {
  %4 = getelementptr inbounds nuw i8, ptr %0, i64 16
  %5 = load ptr, ptr %4, align 8
  %6 = getelementptr inbounds nuw i8, ptr %0, i64 8
  %7 = load ptr, ptr %6, align 8
  %8 = getelementptr inbounds nuw i8, ptr %0, i64 24
  %.sroa.0.0.copyload = load i64, ptr %8, align 8
  tail call void @_ZN5clang7CodeGen15CodeGenFunction14EmitDeleteCallEPKNS_12FunctionDeclEPN4llvm5ValueENS_8QualTypeES7_NS_9CharUnitsE(ptr noundef nonnull align 8 dereferenceable(6488) %1, ptr noundef %5, ptr noundef %7, i64 %.sroa.0.0.copyload, ptr noundef null, i64 0)
  ret void
}